; Function Attrs: null_pointer_is_valid sspstrong uwtable
define internal i32 @dissect_z3950_AttributeSetId(i1 noundef zeroext %0, ptr noundef %1, i32 noundef %2, ptr noundef %3, ptr noundef %4, i32 noundef %5) #0 {
  %7 = alloca ptr, align 8
  call void @llvm.lifetime.start.p0(i64 8, ptr nonnull %7) #9
  store ptr null, ptr %7, align 8
  %8 = call i32 @dissect_ber_object_identifier(i1 noundef zeroext %0, ptr noundef %3, ptr noundef %4, ptr noundef %1, i32 noundef %2, i32 noundef %5, ptr noundef nonnull %7)
  %9 = load ptr, ptr %7, align 8
  %.not = icmp eq ptr %9, null
  br i1 %.not, label %31, label %10

10:                                               ; preds = %6
  %11 = getelementptr inbounds nuw i8, ptr %3, i64 16
  %12 = load ptr, ptr %11, align 8
  %13 = call i32 @tvb_reported_length_remaining(ptr noundef nonnull %9, i32 noundef 0)
  %14 = getelementptr inbounds nuw i8, ptr %12, i64 408
  %15 = load ptr, ptr %14, align 8
  %16 = load ptr, ptr %7, align 8
  %17 = call ptr @tvb_get_ptr(ptr noundef %16, i32 noundef 0, i32 noundef %13)
  %18 = call ptr @oid_encoded2string(ptr noundef %15, ptr noundef %17, i32 noundef %13)
  %19 = call i32 @g_strcmp0(ptr noundef %18, ptr noundef nonnull @.str.1885)
  %20 = icmp eq i32 %19, 0
  %spec.select = zext i1 %20 to i32
  %21 = load ptr, ptr %14, align 8
  %22 = load i32, ptr @proto_z3950, align 4
  %23 = call ptr @p_get_proto_data(ptr noundef %21, ptr noundef %12, i32 noundef %22, i32 noundef 1)
  %24 = icmp eq ptr %23, null
  br i1 %24, label %25, label %30

25:                                               ; preds = %10
  %26 = load ptr, ptr %14, align 8
  %27 = call noalias dereferenceable_or_null(8) ptr @wmem_alloc0(ptr noundef %26, i64 noundef 8) #10
  store i32 %spec.select, ptr %27, align 4
  %28 = load ptr, ptr %14, align 8
  %29 = load i32, ptr @proto_z3950, align 4
  call void @p_add_proto_data(ptr noundef %28, ptr noundef %12, i32 noundef %29, i32 noundef 1, ptr noundef %27)
  br label %31

30:                                               ; preds = %10
  store i32 %spec.select, ptr %23, align 4
  br label %31

31:                                               ; preds = %25, %30, %6
  call void @llvm.lifetime.end.p0(i64 8, ptr nonnull %7) #9
  ret i32 %8
}